; Function Attrs: nounwind sspstrong uwtable
define internal i64 @ossl_sslctx_get_session_cache_mode(i64 noundef %0) #0 {
  %2 = tail call ptr @rb_check_typeddata(i64 noundef %0, ptr noundef nonnull @ossl_sslctx_type) #9
  %3 = tail call i64 @SSL_CTX_ctrl(ptr noundef %2, i32 noundef 45, i64 noundef 0, ptr noundef null) #9
  %4 = add i64 %3, 4611686018427387904
  %or.cond.i = icmp sgt i64 %4, -1
  br i1 %or.cond.i, label %5, label %8

5:                                                ; preds = %1
  %6 = shl nsw i64 %3, 1
  %7 = or disjoint i64 %6, 1
  br label %rb_long2num_inline.exit

8:                                                ; preds = %1
  %9 = tail call i64 @rb_int2big(i64 noundef %3) #9
  br label %rb_long2num_inline.exit

rb_long2num_inline.exit:                          ; preds = %5, %8
  %.0.i = phi i64 [ %7, %5 ], [ %9, %8 ]
  ret i64 %.0.i
}